target datalayout = "e-m:e-p270:32:32-p271:32:32-p272:64:64-i64:64-i128:128-f80:128-n8:16:32:64-S128"
target triple = "x86_64-unknown-linux-gnu"

%"class.node::quic::QuicError" = type { %"class.node::MemoryRetainer", %"class.std::__cxx11::basic_string", %struct.ngtcp2_connection_close_error, ptr }
%"class.node::MemoryRetainer" = type { ptr }
%"class.std::__cxx11::basic_string" = type { %"struct.std::__cxx11::basic_string<char>::_Alloc_hider", i64, %union.anon }
%"struct.std::__cxx11::basic_string<char>::_Alloc_hider" = type { ptr }
%union.anon = type { i64, [8 x i8] }
%struct.ngtcp2_connection_close_error = type { i32, i64, i64, ptr, i64 }
%"class.node::quic::TransportParams" = type { i32, %struct.ngtcp2_transport_params, ptr, %"class.node::quic::QuicError" }
%struct.ngtcp2_transport_params = type { %struct.ngtcp2_preferred_addr, %struct.ngtcp2_cid, %struct.ngtcp2_cid, %struct.ngtcp2_cid, i64, i64, i64, i64, i64, i64, i64, i64, i64, i64, i64, i64, i8, i8, i8, i8, [16 x i8], i8, %struct.ngtcp2_version_info, i8 }
%struct.ngtcp2_preferred_addr = type { %struct.ngtcp2_cid, i16, i16, [4 x i8], [16 x i8], i8, i8, [16 x i8] }
%struct.ngtcp2_cid = type { i64, [20 x i8] }
%struct.ngtcp2_version_info = type { i32, ptr, i64 }
%"class.node::quic::StatelessResetToken" = type { %"class.node::MemoryRetainer", ptr, [16 x i8] }

; Function Attrs: mustprogress nounwind uwtable
define linkonce_odr dso_local void @_ZN4node14MemoryRetainerD2Ev(ptr noundef nonnull align 8 dereferenceable(8) %this) unnamed_addr #4 comdat align 2 {
entry:
  %this.addr = alloca ptr, align 8
  store ptr %this, ptr %this.addr, align 8
  ret void
}

; Function Attrs: mustprogress nounwind uwtable
define linkonce_odr dso_local void @_ZN4node4quic19StatelessResetTokenD2Ev(ptr noundef nonnull align 8 dereferenceable(32) %this) unnamed_addr #4 comdat align 2 {
entry:
  %this.addr = alloca ptr, align 8
  store ptr %this, ptr %this.addr, align 8
  %this1 = load ptr, ptr %this.addr, align 8
  call void @_ZN4node14MemoryRetainerD2Ev(ptr noundef nonnull align 8 dereferenceable(8) %this1) #3
  ret void
}

; Function Attrs: mustprogress nounwind uwtable
define dso_local void @_ZN4node4quic15TransportParams27GenerateStatelessResetTokenERKNS0_8EndpointERKNS0_3CIDE(ptr noundef nonnull align 8 dereferenceable(432) %this, ptr noundef nonnull align 8 dereferenceable(1520) %endpoint, ptr noundef nonnull align 8 dereferenceable(48) %cid) #4 align 2 {
entry:
  %this.addr = alloca ptr, align 8
  %endpoint.addr = alloca ptr, align 8
  %cid.addr = alloca ptr, align 8
  %agg.tmp.ensured = alloca %"class.node::quic::StatelessResetToken", align 8
  store ptr %this, ptr %this.addr, align 8
  store ptr %endpoint, ptr %endpoint.addr, align 8
  store ptr %cid, ptr %cid.addr, align 8
  %this1 = load ptr, ptr %this.addr, align 8
  %params_ = getelementptr inbounds %"class.node::quic::TransportParams", ptr %this1, i32 0, i32 1
  %stateless_reset_token_present = getelementptr inbounds %struct.ngtcp2_transport_params, ptr %params_, i32 0, i32 16
  store i8 1, ptr %stateless_reset_token_present, align 8
  %0 = load ptr, ptr %endpoint.addr, align 8
  %params_2 = getelementptr inbounds %"class.node::quic::TransportParams", ptr %this1, i32 0, i32 1
  %stateless_reset_token = getelementptr inbounds %struct.ngtcp2_transport_params, ptr %params_2, i32 0, i32 20
  %arraydecay = getelementptr inbounds [16 x i8], ptr %stateless_reset_token, i64 0, i64 0
  %1 = load ptr, ptr %cid.addr, align 8
  call void @_ZNK4node4quic8Endpoint30GenerateNewStatelessResetTokenEPhRKNS0_3CIDE(ptr sret(%"class.node::quic::StatelessResetToken") align 8 %agg.tmp.ensured, ptr noundef nonnull align 8 dereferenceable(1520) %0, ptr noundef %arraydecay, ptr noundef nonnull align 8 dereferenceable(48) %1)
  call void @_ZN4node4quic19StatelessResetTokenD2Ev(ptr noundef nonnull align 8 dereferenceable(32) %agg.tmp.ensured) #3
  ret void
}