; Function Attrs: mustprogress nounwind uwtable
define dso_local void @_ZN4node4quic15TransportParams27GenerateStatelessResetTokenERKNS0_8EndpointERKNS0_3CIDE(ptr noundef nonnull align 8 dereferenceable(432) %this, ptr noundef nonnull align 8 dereferenceable(1520) %endpoint, ptr noundef nonnull align 8 dereferenceable(48) %cid) local_unnamed_addr #3 align 2 {
entry:
  %agg.tmp.ensured = alloca %"class.node::quic::StatelessResetToken", align 8
  %stateless_reset_token_present = getelementptr inbounds i8, ptr %this, i64 280
  store i8 1, ptr %stateless_reset_token_present, align 8
  %stateless_reset_token = getelementptr inbounds i8, ptr %this, i64 284
  call void @_ZNK4node4quic8Endpoint30GenerateNewStatelessResetTokenEPhRKNS0_3CIDE(ptr nonnull sret(%"class.node::quic::StatelessResetToken") align 8 %agg.tmp.ensured, ptr noundef nonnull align 8 dereferenceable(1520) %endpoint, ptr noundef nonnull %stateless_reset_token, ptr noundef nonnull align 8 dereferenceable(48) %cid) #19
  ret void
}